target datalayout = "e-m:e-p270:32:32-p271:32:32-p272:64:64-i64:64-i128:128-f80:128-n8:16:32:64-S128"
target triple = "x86_64-unknown-linux-gnu"

%"class.llvh::SmallVector" = type { %"class.llvh::SmallVectorImpl", %"struct.llvh::SmallVectorStorage" }
%"class.llvh::SmallVectorImpl" = type { %"class.llvh::SmallVectorTemplateBase" }
%"class.llvh::SmallVectorTemplateBase" = type { %"class.llvh::SmallVectorTemplateCommon" }
%"class.llvh::SmallVectorTemplateCommon" = type { %"class.llvh::SmallVectorBase" }
%"class.llvh::SmallVectorBase" = type { ptr, i32, i32 }
%"struct.llvh::SmallVectorStorage" = type { [128 x %"struct.llvh::AlignedCharArrayUnion.0"] }
%"struct.llvh::AlignedCharArrayUnion.0" = type { %"struct.llvh::AlignedCharArray.1" }
%"struct.llvh::AlignedCharArray.1" = type { [1 x i8] }
%"class.llvh::SmallString" = type { %"class.llvh::SmallVector" }

; Function Attrs: mustprogress nounwind uwtable
define linkonce_odr hidden void @_ZN4llvh15SmallVectorBaseC2EPvm(ptr noundef nonnull align 8 dereferenceable(16) %this, ptr noundef %FirstEl, i64 noundef %Capacity) unnamed_addr #0 comdat align 2 {
entry:
  %this.addr = alloca ptr, align 8
  %FirstEl.addr = alloca ptr, align 8
  %Capacity.addr = alloca i64, align 8
  store ptr %this, ptr %this.addr, align 8
  store ptr %FirstEl, ptr %FirstEl.addr, align 8
  store i64 %Capacity, ptr %Capacity.addr, align 8
  %this1 = load ptr, ptr %this.addr, align 8
  %BeginX = getelementptr inbounds %"class.llvh::SmallVectorBase", ptr %this1, i32 0, i32 0
  %0 = load ptr, ptr %FirstEl.addr, align 8
  store ptr %0, ptr %BeginX, align 8
  %Size = getelementptr inbounds %"class.llvh::SmallVectorBase", ptr %this1, i32 0, i32 1
  store i32 0, ptr %Size, align 8
  %Capacity2 = getelementptr inbounds %"class.llvh::SmallVectorBase", ptr %this1, i32 0, i32 2
  %1 = load i64, ptr %Capacity.addr, align 8
  %conv = trunc i64 %1 to i32
  store i32 %conv, ptr %Capacity2, align 4
  ret void
}

; Function Attrs: mustprogress nounwind uwtable
define linkonce_odr hidden noundef ptr @_ZNK4llvh25SmallVectorTemplateCommonIcvE10getFirstElEv(ptr noundef nonnull align 8 dereferenceable(16) %this) #0 comdat align 2 {
entry:
  %this.addr = alloca ptr, align 8
  store ptr %this, ptr %this.addr, align 8
  %this1 = load ptr, ptr %this.addr, align 8
  %add.ptr = getelementptr inbounds i8, ptr %this1, i64 16
  ret ptr %add.ptr
}

; Function Attrs: mustprogress nounwind uwtable
define linkonce_odr hidden void @_ZN4llvh25SmallVectorTemplateCommonIcvEC2Em(ptr noundef nonnull align 8 dereferenceable(16) %this, i64 noundef %Size) unnamed_addr #0 comdat align 2 {
entry:
  %this.addr = alloca ptr, align 8
  %Size.addr = alloca i64, align 8
  store ptr %this, ptr %this.addr, align 8
  store i64 %Size, ptr %Size.addr, align 8
  %this1 = load ptr, ptr %this.addr, align 8
  %call = call noundef ptr @_ZNK4llvh25SmallVectorTemplateCommonIcvE10getFirstElEv(ptr noundef nonnull align 8 dereferenceable(16) %this1)
  %0 = load i64, ptr %Size.addr, align 8
  call void @_ZN4llvh15SmallVectorBaseC2EPvm(ptr noundef nonnull align 8 dereferenceable(16) %this1, ptr noundef %call, i64 noundef %0)
  ret void
}

; Function Attrs: mustprogress nounwind uwtable
define linkonce_odr hidden noundef zeroext i1 @_ZNK4llvh25SmallVectorTemplateCommonIcvE7isSmallEv(ptr noundef nonnull align 8 dereferenceable(16) %this) #0 comdat align 2 {
entry:
  %this.addr = alloca ptr, align 8
  store ptr %this, ptr %this.addr, align 8
  %this1 = load ptr, ptr %this.addr, align 8
  %BeginX = getelementptr inbounds %"class.llvh::SmallVectorBase", ptr %this1, i32 0, i32 0
  %0 = load ptr, ptr %BeginX, align 8
  %call = call noundef ptr @_ZNK4llvh25SmallVectorTemplateCommonIcvE10getFirstElEv(ptr noundef nonnull align 8 dereferenceable(16) %this1)
  %cmp = icmp eq ptr %0, %call
  ret i1 %cmp
}

; Function Attrs: mustprogress nounwind uwtable
define linkonce_odr hidden void @_ZN4llvh23SmallVectorTemplateBaseIcLb1EEC2Em(ptr noundef nonnull align 8 dereferenceable(16) %this, i64 noundef %Size) unnamed_addr #0 comdat align 2 {
entry:
  %this.addr = alloca ptr, align 8
  %Size.addr = alloca i64, align 8
  store ptr %this, ptr %this.addr, align 8
  store i64 %Size, ptr %Size.addr, align 8
  %this1 = load ptr, ptr %this.addr, align 8
  %0 = load i64, ptr %Size.addr, align 8
  call void @_ZN4llvh25SmallVectorTemplateCommonIcvEC2Em(ptr noundef nonnull align 8 dereferenceable(16) %this1, i64 noundef %0)
  ret void
}

; Function Attrs: mustprogress nounwind uwtable
define linkonce_odr hidden void @_ZN4llvh15SmallVectorImplIcED2Ev(ptr noundef nonnull align 8 dereferenceable(16) %this) unnamed_addr #0 comdat align 2 {
entry:
  %this.addr.i = alloca ptr, align 8
  %this.addr = alloca ptr, align 8
  store ptr %this, ptr %this.addr, align 8
  %this1 = load ptr, ptr %this.addr, align 8
  %call = call noundef zeroext i1 @_ZNK4llvh25SmallVectorTemplateCommonIcvE7isSmallEv(ptr noundef nonnull align 8 dereferenceable(16) %this1)
  br i1 %call, label %if.end, label %if.then

if.then:                                          ; preds = %entry
  store ptr %this1, ptr %this.addr.i, align 8
  %this1.i = load ptr, ptr %this.addr.i, align 8
  %0 = load ptr, ptr %this1.i, align 8
  call void @free(ptr noundef %0) #9
  br label %if.end

if.end:                                           ; preds = %if.then, %entry
  ret void
}

; Function Attrs: mustprogress nounwind uwtable
define linkonce_odr hidden void @_ZN4llvh23SmallVectorTemplateBaseIcLb1EE13destroy_rangeEPcS2_(ptr noundef %0, ptr noundef %1) #0 comdat align 2 {
entry:
  %.addr = alloca ptr, align 8
  %.addr1 = alloca ptr, align 8
  store ptr %0, ptr %.addr, align 8
  store ptr %1, ptr %.addr1, align 8
  ret void
}

; Function Attrs: mustprogress nounwind uwtable
define linkonce_odr hidden noundef i64 @_ZNK4llvh15SmallVectorBase4sizeEv(ptr noundef nonnull align 8 dereferenceable(16) %this) #0 comdat align 2 {
entry:
  %this.addr = alloca ptr, align 8
  store ptr %this, ptr %this.addr, align 8
  %this1 = load ptr, ptr %this.addr, align 8
  %Size = getelementptr inbounds %"class.llvh::SmallVectorBase", ptr %this1, i32 0, i32 1
  %0 = load i32, ptr %Size, align 8
  %conv = zext i32 %0 to i64
  ret i64 %conv
}

; Function Attrs: mustprogress nounwind uwtable
define linkonce_odr hidden void @_ZN4llvh15SmallVectorImplIcEC2Ej(ptr noundef nonnull align 8 dereferenceable(16) %this, i32 noundef %N) unnamed_addr #0 comdat align 2 {
entry:
  %this.addr = alloca ptr, align 8
  %N.addr = alloca i32, align 4
  store ptr %this, ptr %this.addr, align 8
  store i32 %N, ptr %N.addr, align 4
  %this1 = load ptr, ptr %this.addr, align 8
  %0 = load i32, ptr %N.addr, align 4
  %conv = zext i32 %0 to i64
  call void @_ZN4llvh23SmallVectorTemplateBaseIcLb1EEC2Em(ptr noundef nonnull align 8 dereferenceable(16) %this1, i64 noundef %conv)
  ret void
}

; Function Attrs: mustprogress nounwind uwtable
define linkonce_odr hidden void @_ZN4llvh11SmallVectorIcLj128EED2Ev(ptr noundef nonnull align 8 dereferenceable(144) %this) unnamed_addr #0 comdat align 2 {
entry:
  %this.addr.i.i = alloca ptr, align 8
  %this.addr.i3 = alloca ptr, align 8
  %this.addr.i = alloca ptr, align 8
  %this.addr = alloca ptr, align 8
  store ptr %this, ptr %this.addr, align 8
  %this1 = load ptr, ptr %this.addr, align 8
  store ptr %this1, ptr %this.addr.i, align 8
  %this1.i = load ptr, ptr %this.addr.i, align 8
  %0 = load ptr, ptr %this1.i, align 8
  store ptr %this1, ptr %this.addr.i3, align 8
  %this1.i4 = load ptr, ptr %this.addr.i3, align 8
  store ptr %this1.i4, ptr %this.addr.i.i, align 8
  %this1.i.i = load ptr, ptr %this.addr.i.i, align 8
  %1 = load ptr, ptr %this1.i.i, align 8
  %call2.i = call noundef i64 @_ZNK4llvh15SmallVectorBase4sizeEv(ptr noundef nonnull align 8 dereferenceable(16) %this1.i4)
  %add.ptr.i = getelementptr inbounds i8, ptr %1, i64 %call2.i
  call void @_ZN4llvh23SmallVectorTemplateBaseIcLb1EE13destroy_rangeEPcS2_(ptr noundef %0, ptr noundef %add.ptr.i)
  call void @_ZN4llvh15SmallVectorImplIcED2Ev(ptr noundef nonnull align 8 dereferenceable(16) %this1) #9
  ret void
}

; Function Attrs: mustprogress nounwind uwtable
define linkonce_odr hidden void @_ZN4llvh11SmallVectorIcLj128EEC2Ev(ptr noundef nonnull align 8 dereferenceable(144) %this) unnamed_addr #0 comdat align 2 {
entry:
  %this.addr = alloca ptr, align 8
  store ptr %this, ptr %this.addr, align 8
  %this1 = load ptr, ptr %this.addr, align 8
  call void @_ZN4llvh15SmallVectorImplIcEC2Ej(ptr noundef nonnull align 8 dereferenceable(16) %this1, i32 noundef 128)
  ret void
}

; Function Attrs: mustprogress nounwind uwtable
define linkonce_odr hidden void @_ZN4llvh11SmallStringILj128EED2Ev(ptr noundef nonnull align 8 dereferenceable(144) %this) unnamed_addr #0 comdat align 2 {
entry:
  %this.addr = alloca ptr, align 8
  store ptr %this, ptr %this.addr, align 8
  %this1 = load ptr, ptr %this.addr, align 8
  call void @_ZN4llvh11SmallVectorIcLj128EED2Ev(ptr noundef nonnull align 8 dereferenceable(144) %this1) #9
  ret void
}

; Function Attrs: mustprogress nounwind uwtable
define linkonce_odr hidden void @_ZN4llvh11SmallStringILj128EEC2Ev(ptr noundef nonnull align 8 dereferenceable(144) %this) unnamed_addr #0 comdat align 2 {
entry:
  %this.addr = alloca ptr, align 8
  store ptr %this, ptr %this.addr, align 8
  %this1 = load ptr, ptr %this.addr, align 8
  call void @_ZN4llvh11SmallVectorIcLj128EEC2Ev(ptr noundef nonnull align 8 dereferenceable(144) %this1)
  ret void
}

; Function Attrs: mustprogress nounwind uwtable
define hidden noundef nonnull align 8 dereferenceable(36) ptr @_ZN4llvh11raw_ostreamlsERKNS_19formatv_object_baseE(ptr noundef nonnull align 8 dereferenceable(36) %this, ptr noundef nonnull align 8 dereferenceable(64) %Obj) #0 align 2 {
entry:
  %this.addr = alloca ptr, align 8
  %Obj.addr = alloca ptr, align 8
  %S = alloca %"class.llvh::SmallString", align 8
  store ptr %this, ptr %this.addr, align 8
  store ptr %Obj, ptr %Obj.addr, align 8
  %this1 = load ptr, ptr %this.addr, align 8
  call void @_ZN4llvh11SmallStringILj128EEC2Ev(ptr noundef nonnull align 8 dereferenceable(144) %S)
  %0 = load ptr, ptr %Obj.addr, align 8
  call void @_ZNK4llvh19formatv_object_base6formatERNS_11raw_ostreamE(ptr noundef nonnull align 8 dereferenceable(64) %0, ptr noundef nonnull align 8 dereferenceable(36) %this1)
  call void @_ZN4llvh11SmallStringILj128EED2Ev(ptr noundef nonnull align 8 dereferenceable(144) %S) #9
  ret ptr %this1
}