; Function Attrs: mustprogress nounwind uwtable
define hidden noundef nonnull align 8 dereferenceable(36) ptr @_ZN4llvh11raw_ostreamlsERKNS_19formatv_object_baseE(ptr noundef nonnull returned align 8 dereferenceable(36) %this, ptr noundef nonnull align 8 dereferenceable(64) %Obj) local_unnamed_addr #0 align 2 {
entry:
  %S = alloca %"class.llvh::SmallString", align 8
  %add.ptr.i.i.i.i.i.i = getelementptr inbounds i8, ptr %S, i64 16
  store ptr %add.ptr.i.i.i.i.i.i, ptr %S, align 8
  %Size.i.i.i.i.i.i = getelementptr inbounds i8, ptr %S, i64 8
  store i32 0, ptr %Size.i.i.i.i.i.i, align 8
  %Capacity2.i.i.i.i.i.i = getelementptr inbounds i8, ptr %S, i64 12
  store i32 128, ptr %Capacity2.i.i.i.i.i.i, align 4
  call void @_ZNK4llvh19formatv_object_base6formatERNS_11raw_ostreamE(ptr noundef nonnull align 8 dereferenceable(64) %Obj, ptr noundef nonnull align 8 dereferenceable(36) %this)
  %0 = load ptr, ptr %S, align 8
  %cmp.i.i.i.i = icmp eq ptr %0, %add.ptr.i.i.i.i.i.i
  br i1 %cmp.i.i.i.i, label %_ZN4llvh11SmallStringILj128EED2Ev.exit, label %if.then.i.i.i

if.then.i.i.i:                                    ; preds = %entry
  call void @free(ptr noundef %0) #26
  br label %_ZN4llvh11SmallStringILj128EED2Ev.exit

_ZN4llvh11SmallStringILj128EED2Ev.exit:           ; preds = %entry, %if.then.i.i.i
  ret ptr %this
}